; Function Attrs: mustprogress nofree norecurse nosync nounwind willreturn memory(argmem: readwrite) uwtable
define noundef i32 @u_terminateChars_77(ptr noundef writeonly captures(none) %0, i32 noundef %1, i32 noundef returned %2, ptr noundef %3) local_unnamed_addr #7 {
  %.not = icmp eq ptr %3, null
  br i1 %.not, label %18, label %5

5:                                                ; preds = %4
  %6 = load i32, ptr %3, align 4, !tbaa !64
  %7 = icmp sgt i32 %6, 0
  %8 = icmp slt i32 %2, 0
  %or.cond = or i1 %8, %7
  br i1 %or.cond, label %18, label %9

9:                                                ; preds = %5
  %10 = icmp slt i32 %2, %1
  br i1 %10, label %11, label %16

11:                                               ; preds = %9
  %12 = zext nneg i32 %2 to i64
  %13 = getelementptr inbounds nuw i8, ptr %0, i64 %12
  store i8 0, ptr %13, align 1, !tbaa !62
  %14 = load i32, ptr %3, align 4, !tbaa !64
  %15 = icmp eq i32 %14, -124
  br i1 %15, label %.sink.split, label %18

16:                                               ; preds = %9
  %17 = icmp eq i32 %2, %1
  %. = select i1 %17, i32 -124, i32 15
  br label %.sink.split

.sink.split:                                      ; preds = %16, %11
  %.sink = phi i32 [ 0, %11 ], [ %., %16 ]
  store i32 %.sink, ptr %3, align 4, !tbaa !64
  br label %18

18:                                               ; preds = %.sink.split, %4, %5, %11
  ret i32 %2
}